; Function Attrs: mustprogress uwtable
define dso_local void @_ZNK5cmELF9PrintInfoERSo(ptr nocapture noundef nonnull readonly align 8 dereferenceable(40) %0, ptr noundef nonnull align 8 dereferenceable(8) %1) local_unnamed_addr #0 align 2 {
  %3 = load ptr, ptr %0, align 8
  %.not.i = icmp eq ptr %3, null
  br i1 %.not.i, label %_ZNK5cmELF5ValidEv.exit.thread, label %_ZNK5cmELF5ValidEv.exit

_ZNK5cmELF5ValidEv.exit:                          ; preds = %2
  %4 = getelementptr inbounds i8, ptr %3, i64 28
  %5 = load i32, ptr %4, align 4
  %.not = icmp eq i32 %5, 0
  br i1 %.not, label %_ZNK5cmELF5ValidEv.exit.thread, label %6

6:                                                ; preds = %_ZNK5cmELF5ValidEv.exit
  %7 = load ptr, ptr %3, align 8
  %8 = getelementptr inbounds i8, ptr %7, i64 64
  %9 = load ptr, ptr %8, align 8
  tail call void %9(ptr noundef nonnull align 8 dereferenceable(88) %3, ptr noundef nonnull align 8 dereferenceable(8) %1)
  br label %11

_ZNK5cmELF5ValidEv.exit.thread:                   ; preds = %2, %_ZNK5cmELF5ValidEv.exit
  %10 = tail call noundef nonnull align 8 dereferenceable(8) ptr @_ZStlsISt11char_traitsIcEERSt13basic_ostreamIcT_ES5_PKc(ptr noundef nonnull align 8 dereferenceable(8) %1, ptr noundef nonnull @.str.6)
  br label %11

11:                                               ; preds = %_ZNK5cmELF5ValidEv.exit.thread, %6
  ret void
}